; Function Attrs: nounwind uwtable
define dso_local void @addReplyErrorObject(ptr noundef %0, ptr noundef readonly captures(none) %1) local_unnamed_addr #0 {
  tail call void @addReply(ptr noundef %0, ptr noundef %1)
  %3 = getelementptr inbounds nuw i8, ptr %1, i64 8
  %4 = load ptr, ptr %3, align 8, !tbaa !6
  %5 = getelementptr inbounds i8, ptr %4, i64 -1
  %6 = load i8, ptr %5, align 1, !tbaa !12
  %7 = zext i8 %6 to i32
  %8 = and i32 %7, 7
  switch i32 %8, label %sdslen.exit [
    i32 0, label %9
    i32 1, label %12
    i32 2, label %16
    i32 3, label %20
    i32 4, label %24
  ]

9:                                                ; preds = %2
  %10 = lshr i32 %7, 3
  %11 = zext nneg i32 %10 to i64
  br label %sdslen.exit

12:                                               ; preds = %2
  %13 = getelementptr inbounds i8, ptr %4, i64 -3
  %14 = load i8, ptr %13, align 1, !tbaa !12
  %15 = zext i8 %14 to i64
  br label %sdslen.exit

16:                                               ; preds = %2
  %17 = getelementptr inbounds i8, ptr %4, i64 -5
  %18 = load i16, ptr %17, align 1, !tbaa !13
  %19 = zext i16 %18 to i64
  br label %sdslen.exit

20:                                               ; preds = %2
  %21 = getelementptr inbounds i8, ptr %4, i64 -9
  %22 = load i32, ptr %21, align 1, !tbaa !15
  %23 = zext i32 %22 to i64
  br label %sdslen.exit

24:                                               ; preds = %2
  %25 = getelementptr inbounds i8, ptr %4, i64 -17
  %26 = load i64, ptr %25, align 1, !tbaa !16
  br label %sdslen.exit

sdslen.exit:                                      ; preds = %2, %9, %12, %16, %20, %24
  %.0.i = phi i64 [ %26, %24 ], [ %23, %20 ], [ %19, %16 ], [ %15, %12 ], [ %11, %9 ], [ 0, %2 ]
  %27 = add i64 %.0.i, -2
  tail call void @afterErrorReply(ptr noundef %0, ptr noundef nonnull %4, i64 noundef %27, i32 noundef 0)
  ret void
}